target datalayout = "e-m:e-p270:32:32-p271:32:32-p272:64:64-i64:64-i128:128-f80:128-n8:16:32:64-S128"
target triple = "x86_64-unknown-linux-gnu"

%"class.llvh::FoldingSetNodeID" = type { %"class.llvh::SmallVector" }
%"class.llvh::SmallVector" = type { %"class.llvh::SmallVectorImpl", %"struct.llvh::SmallVectorStorage" }
%"class.llvh::SmallVectorImpl" = type { %"class.llvh::SmallVectorTemplateBase" }
%"class.llvh::SmallVectorTemplateBase" = type { %"class.llvh::SmallVectorTemplateCommon" }
%"class.llvh::SmallVectorTemplateCommon" = type { %"class.llvh::SmallVectorBase" }
%"class.llvh::SmallVectorBase" = type { ptr, i32, i32 }
%"struct.llvh::SmallVectorStorage" = type { [32 x %"struct.llvh::AlignedCharArrayUnion"] }
%"struct.llvh::AlignedCharArrayUnion" = type { %"struct.llvh::AlignedCharArray" }
%"struct.llvh::AlignedCharArray" = type { [4 x i8] }

; Function Attrs: mustprogress nounwind uwtable
define linkonce_odr hidden noundef ptr @_ZNK4llvh25SmallVectorTemplateCommonIjvE10getFirstElEv(ptr noundef nonnull align 8 dereferenceable(16) %this) #0 comdat align 2 {
entry:
  %this.addr = alloca ptr, align 8
  store ptr %this, ptr %this.addr, align 8
  %this1 = load ptr, ptr %this.addr, align 8
  %add.ptr = getelementptr inbounds i8, ptr %this1, i64 16
  ret ptr %add.ptr
}

; Function Attrs: mustprogress nounwind uwtable
define linkonce_odr hidden void @_ZN4llvh25SmallVectorTemplateCommonIjvE8grow_podEmm(ptr noundef nonnull align 8 dereferenceable(16) %this, i64 noundef %MinCapacity, i64 noundef %TSize) #0 comdat align 2 {
entry:
  %this.addr = alloca ptr, align 8
  %MinCapacity.addr = alloca i64, align 8
  %TSize.addr = alloca i64, align 8
  store ptr %this, ptr %this.addr, align 8
  store i64 %MinCapacity, ptr %MinCapacity.addr, align 8
  store i64 %TSize, ptr %TSize.addr, align 8
  %this1 = load ptr, ptr %this.addr, align 8
  %call = call noundef ptr @_ZNK4llvh25SmallVectorTemplateCommonIjvE10getFirstElEv(ptr noundef nonnull align 8 dereferenceable(16) %this1)
  %0 = load i64, ptr %MinCapacity.addr, align 8
  %1 = load i64, ptr %TSize.addr, align 8
  call void @_ZN4llvh15SmallVectorBase8grow_podEPvmm(ptr noundef nonnull align 8 dereferenceable(16) %this1, ptr noundef %call, i64 noundef %0, i64 noundef %1)
  ret void
}

; Function Attrs: mustprogress nounwind uwtable
define linkonce_odr hidden void @_ZN4llvh15SmallVectorBase8set_sizeEm(ptr noundef nonnull align 8 dereferenceable(16) %this, i64 noundef %Size) #0 comdat align 2 {
entry:
  %this.addr = alloca ptr, align 8
  %Size.addr = alloca i64, align 8
  store ptr %this, ptr %this.addr, align 8
  store i64 %Size, ptr %Size.addr, align 8
  %this1 = load ptr, ptr %this.addr, align 8
  %0 = load i64, ptr %Size.addr, align 8
  %conv = trunc i64 %0 to i32
  %Size2 = getelementptr inbounds %"class.llvh::SmallVectorBase", ptr %this1, i32 0, i32 1
  store i32 %conv, ptr %Size2, align 8
  ret void
}

; Function Attrs: mustprogress nounwind uwtable
define linkonce_odr hidden void @_ZN4llvh23SmallVectorTemplateBaseIjLb1EE4growEm(ptr noundef nonnull align 8 dereferenceable(16) %this, i64 noundef %MinSize) #0 comdat align 2 {
entry:
  %this.addr = alloca ptr, align 8
  %MinSize.addr = alloca i64, align 8
  store ptr %this, ptr %this.addr, align 8
  store i64 %MinSize, ptr %MinSize.addr, align 8
  %this1 = load ptr, ptr %this.addr, align 8
  %0 = load i64, ptr %MinSize.addr, align 8
  call void @_ZN4llvh25SmallVectorTemplateCommonIjvE8grow_podEmm(ptr noundef nonnull align 8 dereferenceable(16) %this1, i64 noundef %0, i64 noundef 4)
  ret void
}

; Function Attrs: mustprogress nounwind uwtable
define linkonce_odr hidden noundef i64 @_ZNK4llvh15SmallVectorBase8capacityEv(ptr noundef nonnull align 8 dereferenceable(16) %this) #0 comdat align 2 {
entry:
  %this.addr = alloca ptr, align 8
  store ptr %this, ptr %this.addr, align 8
  %this1 = load ptr, ptr %this.addr, align 8
  %Capacity = getelementptr inbounds %"class.llvh::SmallVectorBase", ptr %this1, i32 0, i32 2
  %0 = load i32, ptr %Capacity, align 4
  %conv = zext i32 %0 to i64
  ret i64 %conv
}

; Function Attrs: mustprogress nounwind uwtable
define linkonce_odr hidden noundef i64 @_ZNK4llvh15SmallVectorBase4sizeEv(ptr noundef nonnull align 8 dereferenceable(16) %this) #0 comdat align 2 {
entry:
  %this.addr = alloca ptr, align 8
  store ptr %this, ptr %this.addr, align 8
  %this1 = load ptr, ptr %this.addr, align 8
  %Size = getelementptr inbounds %"class.llvh::SmallVectorBase", ptr %this1, i32 0, i32 1
  %0 = load i32, ptr %Size, align 8
  %conv = zext i32 %0 to i64
  ret i64 %conv
}

; Function Attrs: mustprogress nounwind uwtable
define linkonce_odr hidden void @_ZN4llvh23SmallVectorTemplateBaseIjLb1EE9push_backERKj(ptr noundef nonnull align 8 dereferenceable(16) %this, ptr noundef nonnull align 4 dereferenceable(4) %Elt) #0 comdat align 2 {
entry:
  %this.addr.i.i = alloca ptr, align 8
  %this.addr.i = alloca ptr, align 8
  %this.addr = alloca ptr, align 8
  %Elt.addr = alloca ptr, align 8
  store ptr %this, ptr %this.addr, align 8
  store ptr %Elt, ptr %Elt.addr, align 8
  %this1 = load ptr, ptr %this.addr, align 8
  %call = call noundef i64 @_ZNK4llvh15SmallVectorBase4sizeEv(ptr noundef nonnull align 8 dereferenceable(16) %this1)
  %call2 = call noundef i64 @_ZNK4llvh15SmallVectorBase8capacityEv(ptr noundef nonnull align 8 dereferenceable(16) %this1)
  %cmp = icmp uge i64 %call, %call2
  br i1 %cmp, label %if.then, label %if.end

if.then:                                          ; preds = %entry
  call void @_ZN4llvh23SmallVectorTemplateBaseIjLb1EE4growEm(ptr noundef nonnull align 8 dereferenceable(16) %this1, i64 noundef 0)
  br label %if.end

if.end:                                           ; preds = %if.then, %entry
  store ptr %this1, ptr %this.addr.i, align 8
  %this1.i = load ptr, ptr %this.addr.i, align 8
  store ptr %this1.i, ptr %this.addr.i.i, align 8
  %this1.i.i = load ptr, ptr %this.addr.i.i, align 8
  %0 = load ptr, ptr %this1.i.i, align 8
  %call2.i = call noundef i64 @_ZNK4llvh15SmallVectorBase4sizeEv(ptr noundef nonnull align 8 dereferenceable(16) %this1.i)
  %add.ptr.i = getelementptr inbounds i32, ptr %0, i64 %call2.i
  %1 = load ptr, ptr %Elt.addr, align 8
  call void @llvm.memcpy.p0.p0.i64(ptr align 1 %add.ptr.i, ptr align 4 %1, i64 4, i1 false)
  %call4 = call noundef i64 @_ZNK4llvh15SmallVectorBase4sizeEv(ptr noundef nonnull align 8 dereferenceable(16) %this1)
  %add = add i64 %call4, 1
  call void @_ZN4llvh15SmallVectorBase8set_sizeEm(ptr noundef nonnull align 8 dereferenceable(16) %this1, i64 noundef %add)
  ret void
}

; Function Attrs: mustprogress nounwind uwtable
define hidden void @_ZN4llvh16FoldingSetNodeID10AddIntegerEj(ptr noundef nonnull align 8 dereferenceable(144) %this, i32 noundef %I) #0 align 2 {
entry:
  %this.addr = alloca ptr, align 8
  %I.addr = alloca i32, align 4
  store ptr %this, ptr %this.addr, align 8
  store i32 %I, ptr %I.addr, align 4
  %this1 = load ptr, ptr %this.addr, align 8
  %Bits = getelementptr inbounds %"class.llvh::FoldingSetNodeID", ptr %this1, i32 0, i32 0
  call void @_ZN4llvh23SmallVectorTemplateBaseIjLb1EE9push_backERKj(ptr noundef nonnull align 8 dereferenceable(16) %Bits, ptr noundef nonnull align 4 dereferenceable(4) %I.addr)
  ret void
}

; Function Attrs: mustprogress nounwind uwtable
define hidden void @_ZN4llvh16FoldingSetNodeID10AddIntegerEy(ptr noundef nonnull align 8 dereferenceable(144) %this, i64 noundef %I) #0 align 2 {
entry:
  %this.addr = alloca ptr, align 8
  %I.addr = alloca i64, align 8
  store ptr %this, ptr %this.addr, align 8
  store i64 %I, ptr %I.addr, align 8
  %this1 = load ptr, ptr %this.addr, align 8
  %0 = load i64, ptr %I.addr, align 8
  %conv = trunc i64 %0 to i32
  call void @_ZN4llvh16FoldingSetNodeID10AddIntegerEj(ptr noundef nonnull align 8 dereferenceable(144) %this1, i32 noundef %conv)
  %1 = load i64, ptr %I.addr, align 8
  %shr = lshr i64 %1, 32
  %conv2 = trunc i64 %shr to i32
  call void @_ZN4llvh16FoldingSetNodeID10AddIntegerEj(ptr noundef nonnull align 8 dereferenceable(144) %this1, i32 noundef %conv2)
  ret void
}

; Function Attrs: mustprogress nounwind uwtable
define hidden void @_ZN4llvh16FoldingSetNodeID10AddIntegerEx(ptr noundef nonnull align 8 dereferenceable(144) %this, i64 noundef %I) #0 align 2 {
entry:
  %this.addr = alloca ptr, align 8
  %I.addr = alloca i64, align 8
  store ptr %this, ptr %this.addr, align 8
  store i64 %I, ptr %I.addr, align 8
  %this1 = load ptr, ptr %this.addr, align 8
  %0 = load i64, ptr %I.addr, align 8
  call void @_ZN4llvh16FoldingSetNodeID10AddIntegerEy(ptr noundef nonnull align 8 dereferenceable(144) %this1, i64 noundef %0)
  ret void
}